target datalayout = "e-m:e-p270:32:32-p271:32:32-p272:64:64-i64:64-i128:128-f80:128-n8:16:32:64-S128"
target triple = "x86_64-pc-linux-gnu"

%struct.strbuf = type { i64, i64, ptr }
%struct.anon = type { ptr, ptr, ptr, i32 }
%struct.fsck_options = type { ptr, ptr, i32, i32, ptr, %struct.oidset, %struct.oidset, %struct.oidset, %struct.oidset, %struct.oidset, ptr }
%struct.oidset = type { %struct.kh_oid_set }
%struct.kh_oid_set = type { i32, i32, i32, i32, ptr, ptr, ptr }

@__const.fsck_vreport.sb = private unnamed_addr constant %struct.strbuf { i64 0, i64 0, ptr @strbuf_slopbuf }, align 8
@.str.107 = private unnamed_addr constant [5 x i8] c"%s: \00", align 1

; Function Attrs: nounwind uwtable
define internal i32 @fsck_msg_type(i32 noundef %0, ptr noundef %1) #0 {
  %3 = alloca i32, align 4
  %4 = alloca i32, align 4
  %5 = alloca ptr, align 8
  %6 = alloca i32, align 4
  store i32 %0, ptr %4, align 4, !tbaa !11
  store ptr %1, ptr %5, align 8, !tbaa !24
  %7 = load ptr, ptr %5, align 8, !tbaa !24
  %8 = getelementptr inbounds nuw %struct.fsck_options, ptr %7, i32 0, i32 4
  %9 = load ptr, ptr %8, align 8, !tbaa !26
  %10 = icmp ne ptr %9, null
  br i1 %10, label %27, label %11

11:                                               ; preds = %2
  call void @llvm.lifetime.start.p0(i64 4, ptr %6) #11
  %12 = load i32, ptr %4, align 4, !tbaa !11
  %13 = zext i32 %12 to i64
  %14 = getelementptr inbounds nuw [67 x %struct.anon], ptr @msg_id_info, i64 0, i64 %13
  %15 = getelementptr inbounds nuw %struct.anon, ptr %14, i32 0, i32 3
  %16 = load i32, ptr %15, align 8, !tbaa !37
  store i32 %16, ptr %6, align 4, !tbaa !11
  %17 = load ptr, ptr %5, align 8, !tbaa !24
  %18 = getelementptr inbounds nuw %struct.fsck_options, ptr %17, i32 0, i32 2
  %19 = load i32, ptr %18, align 8, !tbaa !38
  %20 = icmp ne i32 %19, 0
  br i1 %20, label %21, label %25

21:                                               ; preds = %11
  %22 = load i32, ptr %6, align 4, !tbaa !11
  %23 = icmp eq i32 %22, 4
  br i1 %23, label %24, label %25

24:                                               ; preds = %21
  store i32 3, ptr %6, align 4, !tbaa !11
  br label %25

25:                                               ; preds = %24, %21, %11
  %26 = load i32, ptr %6, align 4, !tbaa !11
  store i32 %26, ptr %3, align 4
  call void @llvm.lifetime.end.p0(i64 4, ptr %6) #11
  br label %35

27:                                               ; preds = %2
  %28 = load ptr, ptr %5, align 8, !tbaa !24
  %29 = getelementptr inbounds nuw %struct.fsck_options, ptr %28, i32 0, i32 4
  %30 = load ptr, ptr %29, align 8, !tbaa !26
  %31 = load i32, ptr %4, align 4, !tbaa !11
  %32 = zext i32 %31 to i64
  %33 = getelementptr inbounds nuw i32, ptr %30, i64 %32
  %34 = load i32, ptr %33, align 4, !tbaa !11
  store i32 %34, ptr %3, align 4
  br label %35

35:                                               ; preds = %27, %25
  %36 = load i32, ptr %3, align 4
  ret i32 %36
}

; Function Attrs: nounwind uwtable
define internal i32 @fsck_vreport(ptr noundef %0, ptr noundef %1, i32 noundef %2, ptr noundef %3, ptr noundef %4) #0 {
  %6 = alloca i32, align 4
  %7 = alloca ptr, align 8
  %8 = alloca ptr, align 8
  %9 = alloca i32, align 4
  %10 = alloca ptr, align 8
  %11 = alloca ptr, align 8
  %12 = alloca %struct.strbuf, align 8
  %13 = alloca i32, align 4
  %14 = alloca i32, align 4
  %15 = alloca i32, align 4
  store ptr %0, ptr %7, align 8, !tbaa !24
  store ptr %1, ptr %8, align 8, !tbaa !33
  store i32 %2, ptr %9, align 4, !tbaa !11
  store ptr %3, ptr %10, align 8, !tbaa !9
  store ptr %4, ptr %11, align 8, !tbaa !63
  call void @llvm.lifetime.start.p0(i64 24, ptr %12) #11
  call void @llvm.memcpy.p0.p0.i64(ptr align 8 %12, ptr align 8 @__const.fsck_vreport.sb, i64 24, i1 false)
  call void @llvm.lifetime.start.p0(i64 4, ptr %13) #11
  %16 = load i32, ptr %9, align 4, !tbaa !11
  %17 = load ptr, ptr %7, align 8, !tbaa !24
  %18 = call i32 @fsck_msg_type(i32 noundef %16, ptr noundef %17)
  store i32 %18, ptr %13, align 4, !tbaa !11
  call void @llvm.lifetime.start.p0(i64 4, ptr %14) #11
  %19 = load i32, ptr %13, align 4, !tbaa !11
  %20 = icmp eq i32 %19, 0
  br i1 %20, label %21, label %22

21:                                               ; preds = %5
  store i32 0, ptr %6, align 4
  store i32 1, ptr %15, align 4
  br label %50

22:                                               ; preds = %5
  %23 = load i32, ptr %13, align 4, !tbaa !11
  %24 = icmp eq i32 %23, 2
  br i1 %24, label %25, label %26

25:                                               ; preds = %22
  store i32 3, ptr %13, align 4, !tbaa !11
  br label %31

26:                                               ; preds = %22
  %27 = load i32, ptr %13, align 4, !tbaa !11
  %28 = icmp eq i32 %27, 1
  br i1 %28, label %29, label %30

29:                                               ; preds = %26
  store i32 4, ptr %13, align 4, !tbaa !11
  br label %30

30:                                               ; preds = %29, %26
  br label %31

31:                                               ; preds = %30, %25
  call void @prepare_msg_ids()
  %32 = load i32, ptr %9, align 4, !tbaa !11
  %33 = zext i32 %32 to i64
  %34 = getelementptr inbounds nuw [67 x %struct.anon], ptr @msg_id_info, i64 0, i64 %33
  %35 = getelementptr inbounds nuw %struct.anon, ptr %34, i32 0, i32 2
  %36 = load ptr, ptr %35, align 16, !tbaa !13
  call void (ptr, ptr, ...) @strbuf_addf(ptr noundef %12, ptr noundef @.str.107, ptr noundef %36)
  %37 = load ptr, ptr %10, align 8, !tbaa !9
  %38 = load ptr, ptr %11, align 8, !tbaa !63
  call void @strbuf_vaddf(ptr noundef %12, ptr noundef %37, ptr noundef %38)
  %39 = load ptr, ptr %7, align 8, !tbaa !24
  %40 = getelementptr inbounds nuw %struct.fsck_options, ptr %39, i32 0, i32 1
  %41 = load ptr, ptr %40, align 8, !tbaa !65
  %42 = load ptr, ptr %7, align 8, !tbaa !24
  %43 = load ptr, ptr %8, align 8, !tbaa !33
  %44 = load i32, ptr %13, align 4, !tbaa !11
  %45 = load i32, ptr %9, align 4, !tbaa !11
  %46 = getelementptr inbounds nuw %struct.strbuf, ptr %12, i32 0, i32 2
  %47 = load ptr, ptr %46, align 8, !tbaa !66
  %48 = call i32 %41(ptr noundef %42, ptr noundef %43, i32 noundef %44, i32 noundef %45, ptr noundef %47)
  store i32 %48, ptr %14, align 4, !tbaa !11
  call void @strbuf_release(ptr noundef %12)
  %49 = load i32, ptr %14, align 4, !tbaa !11
  store i32 %49, ptr %6, align 4
  store i32 1, ptr %15, align 4
  br label %50

50:                                               ; preds = %31, %21
  call void @llvm.lifetime.end.p0(i64 4, ptr %14) #11
  call void @llvm.lifetime.end.p0(i64 4, ptr %13) #11
  call void @llvm.lifetime.end.p0(i64 24, ptr %12) #11
  %51 = load i32, ptr %6, align 4
  ret i32 %51
}