; Function Attrs: nounwind uwtable
define internal fastcc i32 @fsck_vreport(ptr noundef %0, ptr noundef %1, i32 noundef %2, ptr noundef %3, ptr noundef nonnull %4) unnamed_addr #0 {
  %6 = alloca %struct.strbuf, align 8
  call void @llvm.lifetime.start.p0(i64 24, ptr nonnull %6) #16
  call void @llvm.memcpy.p0.p0.i64(ptr noundef nonnull align 8 dereferenceable(24) %6, ptr noundef nonnull align 8 dereferenceable(24) @__const.fsck_vreport.sb, i64 24, i1 false)
  %7 = getelementptr inbounds nuw i8, ptr %0, i64 24
  %8 = load ptr, ptr %7, align 8, !tbaa !20
  %.not.i = icmp eq ptr %8, null
  %9 = zext i32 %2 to i64
  br i1 %.not.i, label %10, label %17

10:                                               ; preds = %5
  %11 = getelementptr inbounds nuw [67 x %struct.anon], ptr @msg_id_info, i64 0, i64 %9, i32 3
  %12 = load i32, ptr %11, align 8, !tbaa !27
  %13 = getelementptr inbounds nuw i8, ptr %0, i64 16
  %14 = load i32, ptr %13, align 8, !tbaa !28
  %15 = icmp ne i32 %14, 0
  %16 = icmp eq i32 %12, 4
  %or.cond.i = select i1 %15, i1 %16, i1 false
  br i1 %or.cond.i, label %.thread, label %fsck_msg_type.exit

17:                                               ; preds = %5
  %18 = getelementptr inbounds nuw i32, ptr %8, i64 %9
  %19 = load i32, ptr %18, align 4, !tbaa !29
  br label %fsck_msg_type.exit

fsck_msg_type.exit:                               ; preds = %10, %17
  %.0.i = phi i32 [ %19, %17 ], [ %12, %10 ]
  switch i32 %.0.i, label %.thread.fold.split [
    i32 0, label %28
    i32 2, label %.thread
    i32 1, label %20
  ]

20:                                               ; preds = %fsck_msg_type.exit
  br label %.thread

.thread.fold.split:                               ; preds = %fsck_msg_type.exit
  br label %.thread

.thread:                                          ; preds = %fsck_msg_type.exit, %.thread.fold.split, %10, %20
  %.014 = phi i32 [ 3, %fsck_msg_type.exit ], [ 4, %20 ], [ 3, %10 ], [ %.0.i, %.thread.fold.split ]
  tail call fastcc void @prepare_msg_ids()
  %21 = getelementptr inbounds nuw [67 x %struct.anon], ptr @msg_id_info, i64 0, i64 %9, i32 2
  %22 = load ptr, ptr %21, align 16, !tbaa !4
  call void (ptr, ptr, ...) @strbuf_addf(ptr noundef nonnull %6, ptr noundef nonnull @.str.107, ptr noundef %22) #16
  call void @strbuf_vaddf(ptr noundef nonnull %6, ptr noundef %3, ptr noundef nonnull %4) #16
  %23 = getelementptr inbounds nuw i8, ptr %0, i64 8
  %24 = load ptr, ptr %23, align 8, !tbaa !54
  %25 = getelementptr inbounds nuw i8, ptr %6, i64 16
  %26 = load ptr, ptr %25, align 8, !tbaa !55
  %27 = call i32 %24(ptr noundef nonnull %0, ptr noundef %1, i32 noundef %.014, i32 noundef %2, ptr noundef %26) #16
  call void @strbuf_release(ptr noundef nonnull %6) #16
  br label %28

28:                                               ; preds = %fsck_msg_type.exit, %.thread
  %.0 = phi i32 [ %27, %.thread ], [ %.0.i, %fsck_msg_type.exit ]
  call void @llvm.lifetime.end.p0(i64 24, ptr nonnull %6) #16
  ret i32 %.0
}